target datalayout = "e-m:e-p270:32:32-p271:32:32-p272:64:64-i64:64-i128:128-f80:128-n8:16:32:64-S128"
target triple = "x86_64-pc-linux-gnu"

@.str = private unnamed_addr constant [27 x i8] c"hash AM does not use P_NEW\00", align 1
@.str.1 = private unnamed_addr constant [11 x i8] c"hashpage.c\00", align 1
@__func__._hash_getbuf = private unnamed_addr constant [13 x i8] c"_hash_getbuf\00", align 1

; Function Attrs: nounwind uwtable
define dso_local i32 @_hash_getbuf(ptr noundef %0, i32 noundef %1, i32 noundef %2, i32 noundef %3) #0 {
  %5 = alloca ptr, align 8
  %6 = alloca i32, align 4
  %7 = alloca i32, align 4
  %8 = alloca i32, align 4
  %9 = alloca i32, align 4
  store ptr %0, ptr %5, align 8
  store i32 %1, ptr %6, align 4
  store i32 %2, ptr %7, align 4
  store i32 %3, ptr %8, align 4
  call void @llvm.lifetime.start.p0(i64 4, ptr %9) #9
  %10 = load i32, ptr %6, align 4
  %11 = icmp eq i32 %10, -1
  br i1 %11, label %12, label %23

12:                                               ; preds = %4
  br label %13

13:                                               ; preds = %12
  br i1 true, label %14, label %16

14:                                               ; preds = %13
  %15 = call zeroext i1 @errstart_cold(i32 noundef 21, ptr noundef null) #10
  br i1 %15, label %18, label %20

16:                                               ; preds = %13
  %17 = call zeroext i1 @errstart(i32 noundef 21, ptr noundef null)
  br i1 %17, label %18, label %20

18:                                               ; preds = %16, %14
  %19 = call i32 (ptr, ...) @errmsg_internal(ptr noundef @.str)
  call void @errfinish(ptr noundef @.str.1, i32 noundef 75, ptr noundef @__func__._hash_getbuf)
  br label %20

20:                                               ; preds = %18, %16, %14
  unreachable

21:                                               ; No predecessors!
  br label %22

22:                                               ; preds = %21
  br label %23

23:                                               ; preds = %22, %4
  %24 = load ptr, ptr %5, align 8
  %25 = load i32, ptr %6, align 4
  %26 = call i32 @ReadBuffer(ptr noundef %24, i32 noundef %25)
  store i32 %26, ptr %9, align 4
  %27 = load i32, ptr %7, align 4
  %28 = icmp ne i32 %27, -1
  br i1 %28, label %29, label %32

29:                                               ; preds = %23
  %30 = load i32, ptr %9, align 4
  %31 = load i32, ptr %7, align 4
  call void @LockBuffer(i32 noundef %30, i32 noundef %31)
  br label %32

32:                                               ; preds = %29, %23
  %33 = load ptr, ptr %5, align 8
  %34 = load i32, ptr %9, align 4
  %35 = load i32, ptr %8, align 4
  call void @_hash_checkpage(ptr noundef %33, i32 noundef %34, i32 noundef %35)
  %36 = load i32, ptr %9, align 4
  call void @llvm.lifetime.end.p0(i64 4, ptr %9) #9
  ret i32 %36
}