; Function Attrs: nounwind uwtable
define dso_local i32 @_hash_getbuf(ptr noundef %0, i32 noundef %1, i32 noundef %2, i32 noundef %3) local_unnamed_addr #0 {
  %5 = icmp eq i32 %1, -1
  br i1 %5, label %6, label %9

6:                                                ; preds = %4
  %7 = tail call zeroext i1 @errstart_cold(i32 noundef 21, ptr noundef null) #9
  tail call void @llvm.assume(i1 %7)
  %8 = tail call i32 (ptr, ...) @errmsg_internal(ptr noundef nonnull @.str) #10
  tail call void @errfinish(ptr noundef nonnull @.str.1, i32 noundef 75, ptr noundef nonnull @__func__._hash_getbuf) #10
  unreachable

9:                                                ; preds = %4
  %10 = tail call i32 @ReadBuffer(ptr noundef %0, i32 noundef %1) #10
  %.not = icmp eq i32 %2, -1
  br i1 %.not, label %12, label %11

11:                                               ; preds = %9
  tail call void @LockBuffer(i32 noundef %10, i32 noundef %2) #10
  br label %12

12:                                               ; preds = %11, %9
  tail call void @_hash_checkpage(ptr noundef %0, i32 noundef %10, i32 noundef %3) #10
  ret i32 %10
}